target datalayout = "e-m:e-p270:32:32-p271:32:32-p272:64:64-i64:64-i128:128-f80:128-n8:16:32:64-S128"
target triple = "x86_64-pc-linux-gnu"

%struct.Py_buffer = type { ptr, ptr, i64, i64, i32, i32, ptr, ptr, ptr, ptr, ptr }

@.str.9 = private unnamed_addr constant [8 x i8] c"crc_hqx\00", align 1

; Function Attrs: nounwind uwtable
define internal ptr @binascii_crc_hqx_impl(ptr noundef %0, ptr noundef %1, i32 noundef %2) #0 {
  %4 = alloca ptr, align 8
  %5 = alloca ptr, align 8
  %6 = alloca i32, align 4
  %7 = alloca ptr, align 8
  %8 = alloca i64, align 8
  store ptr %0, ptr %4, align 8, !tbaa !3
  store ptr %1, ptr %5, align 8, !tbaa !8
  store i32 %2, ptr %6, align 4, !tbaa !13
  call void @llvm.lifetime.start.p0(i64 8, ptr %7) #7
  call void @llvm.lifetime.start.p0(i64 8, ptr %8) #7
  %9 = load i32, ptr %6, align 4, !tbaa !13
  %10 = and i32 %9, 65535
  store i32 %10, ptr %6, align 4, !tbaa !13
  %11 = load ptr, ptr %5, align 8, !tbaa !8
  %12 = getelementptr inbounds nuw %struct.Py_buffer, ptr %11, i32 0, i32 0
  %13 = load ptr, ptr %12, align 8, !tbaa !24
  store ptr %13, ptr %7, align 8, !tbaa !35
  %14 = load ptr, ptr %5, align 8, !tbaa !8
  %15 = getelementptr inbounds nuw %struct.Py_buffer, ptr %14, i32 0, i32 2
  %16 = load i64, ptr %15, align 8, !tbaa !25
  store i64 %16, ptr %8, align 8, !tbaa !23
  br label %17

17:                                               ; preds = %21, %3
  %18 = load i64, ptr %8, align 8, !tbaa !23
  %19 = add i64 %18, -1
  store i64 %19, ptr %8, align 8, !tbaa !23
  %20 = icmp sgt i64 %18, 0
  br i1 %20, label %21, label %37

21:                                               ; preds = %17
  %22 = load i32, ptr %6, align 4, !tbaa !13
  %23 = shl i32 %22, 8
  %24 = and i32 %23, 65280
  %25 = load i32, ptr %6, align 4, !tbaa !13
  %26 = lshr i32 %25, 8
  %27 = load ptr, ptr %7, align 8, !tbaa !35
  %28 = getelementptr i8, ptr %27, i32 1
  store ptr %28, ptr %7, align 8, !tbaa !35
  %29 = load i8, ptr %27, align 1, !tbaa !36
  %30 = zext i8 %29 to i32
  %31 = xor i32 %26, %30
  %32 = zext i32 %31 to i64
  %33 = getelementptr [256 x i16], ptr @crctab_hqx, i64 0, i64 %32
  %34 = load i16, ptr %33, align 2, !tbaa !53
  %35 = zext i16 %34 to i32
  %36 = xor i32 %24, %35
  store i32 %36, ptr %6, align 4, !tbaa !13
  br label %17, !llvm.loop !54

37:                                               ; preds = %17
  %38 = load i32, ptr %6, align 4, !tbaa !13
  %39 = zext i32 %38 to i64
  %40 = call ptr @PyLong_FromUnsignedLong(i64 noundef %39)
  call void @llvm.lifetime.end.p0(i64 8, ptr %8) #7
  call void @llvm.lifetime.end.p0(i64 8, ptr %7) #7
  ret ptr %40
}

; Function Attrs: nounwind uwtable
define internal ptr @binascii_crc_hqx(ptr noundef %0, ptr noundef %1, i64 noundef %2) #0 {
  %4 = alloca ptr, align 8
  %5 = alloca ptr, align 8
  %6 = alloca i64, align 8
  %7 = alloca ptr, align 8
  %8 = alloca %struct.Py_buffer, align 8
  %9 = alloca i32, align 4
  store ptr %0, ptr %4, align 8, !tbaa !3
  store ptr %1, ptr %5, align 8, !tbaa !16
  store i64 %2, ptr %6, align 8, !tbaa !23
  call void @llvm.lifetime.start.p0(i64 8, ptr %7) #7
  store ptr null, ptr %7, align 8, !tbaa !3
  call void @llvm.lifetime.start.p0(i64 80, ptr %8) #7
  call void @llvm.memset.p0.i64(ptr align 8 %8, i8 0, i64 80, i1 false)
  call void @llvm.lifetime.start.p0(i64 4, ptr %9) #7
  %10 = load i64, ptr %6, align 8, !tbaa !23
  %11 = icmp sle i64 2, %10
  br i1 %11, label %12, label %15

12:                                               ; preds = %3
  %13 = load i64, ptr %6, align 8, !tbaa !23
  %14 = icmp sle i64 %13, 2
  br i1 %14, label %20, label %15

15:                                               ; preds = %12, %3
  %16 = load i64, ptr %6, align 8, !tbaa !23
  %17 = call i32 @_PyArg_CheckPositional(ptr noundef @.str.9, i64 noundef %16, i64 noundef 2, i64 noundef 2)
  %18 = icmp ne i32 %17, 0
  br i1 %18, label %20, label %19

19:                                               ; preds = %15
  br label %43

20:                                               ; preds = %15, %12
  %21 = load ptr, ptr %5, align 8, !tbaa !16
  %22 = getelementptr ptr, ptr %21, i64 0
  %23 = load ptr, ptr %22, align 8, !tbaa !3
  %24 = call i32 @PyObject_GetBuffer(ptr noundef %23, ptr noundef %8, i32 noundef 0)
  %25 = icmp ne i32 %24, 0
  br i1 %25, label %26, label %27

26:                                               ; preds = %20
  br label %43

27:                                               ; preds = %20
  %28 = load ptr, ptr %5, align 8, !tbaa !16
  %29 = getelementptr ptr, ptr %28, i64 1
  %30 = load ptr, ptr %29, align 8, !tbaa !3
  %31 = call i64 @PyLong_AsUnsignedLongMask(ptr noundef %30)
  %32 = trunc i64 %31 to i32
  store i32 %32, ptr %9, align 4, !tbaa !13
  %33 = load i32, ptr %9, align 4, !tbaa !13
  %34 = icmp eq i32 %33, -1
  br i1 %34, label %35, label %39

35:                                               ; preds = %27
  %36 = call ptr @PyErr_Occurred()
  %37 = icmp ne ptr %36, null
  br i1 %37, label %38, label %39

38:                                               ; preds = %35
  br label %43

39:                                               ; preds = %35, %27
  %40 = load ptr, ptr %4, align 8, !tbaa !3
  %41 = load i32, ptr %9, align 4, !tbaa !13
  %42 = call ptr @binascii_crc_hqx_impl(ptr noundef %40, ptr noundef %8, i32 noundef %41)
  store ptr %42, ptr %7, align 8, !tbaa !3
  br label %43

43:                                               ; preds = %39, %38, %26, %19
  %44 = getelementptr inbounds nuw %struct.Py_buffer, ptr %8, i32 0, i32 1
  %45 = load ptr, ptr %44, align 8, !tbaa !18
  %46 = icmp ne ptr %45, null
  br i1 %46, label %47, label %48

47:                                               ; preds = %43
  call void @PyBuffer_Release(ptr noundef %8)
  br label %48

48:                                               ; preds = %47, %43
  %49 = load ptr, ptr %7, align 8, !tbaa !3
  call void @llvm.lifetime.end.p0(i64 4, ptr %9) #7
  call void @llvm.lifetime.end.p0(i64 80, ptr %8) #7
  call void @llvm.lifetime.end.p0(i64 8, ptr %7) #7
  ret ptr %49
}