; Function Attrs: nounwind uwtable
define internal ptr @binascii_crc_hqx(ptr readnone captures(none) %0, ptr noundef readonly captures(none) %1, i64 noundef %2) #0 {
  %4 = alloca %struct.Py_buffer, align 8
  call void @llvm.lifetime.start.p0(i64 80, ptr nonnull %4) #5
  call void @llvm.memset.p0.i64(ptr noundef nonnull align 8 dereferenceable(80) %4, i8 0, i64 80, i1 false)
  %or.cond = icmp eq i64 %2, 2
  br i1 %or.cond, label %7, label %5

5:                                                ; preds = %3
  %6 = tail call i32 @_PyArg_CheckPositional(ptr noundef nonnull @.str.9, i64 noundef %2, i64 noundef 2, i64 noundef 2) #5
  %.not = icmp eq i32 %6, 0
  br i1 %.not, label %52, label %7

7:                                                ; preds = %3, %5
  %8 = load ptr, ptr %1, align 8, !tbaa !10
  %9 = call i32 @PyObject_GetBuffer(ptr noundef %8, ptr noundef nonnull %4, i32 noundef 0) #5
  %.not11 = icmp eq i32 %9, 0
  br i1 %.not11, label %10, label %52

10:                                               ; preds = %7
  %11 = getelementptr i8, ptr %1, i64 8
  %12 = load ptr, ptr %11, align 8, !tbaa !10
  %13 = call i64 @PyLong_AsUnsignedLongMask(ptr noundef %12) #5
  %14 = trunc i64 %13 to i32
  %15 = icmp eq i32 %14, -1
  br i1 %15, label %33, label %.split

.split:                                           ; preds = %10
  %16 = getelementptr inbounds nuw i8, ptr %4, i64 16
  %.val16 = load i64, ptr %16, align 8, !tbaa !18
  %17 = and i32 %14, 65535
  %18 = icmp sgt i64 %.val16, 0
  br i1 %18, label %.lr.ph.i.preheader, label %.sink.split

.lr.ph.i.preheader:                               ; preds = %.split
  %.val15 = load ptr, ptr %4, align 8, !tbaa !12
  br label %.lr.ph.i

.lr.ph.i:                                         ; preds = %.lr.ph.i.preheader, %.lr.ph.i
  %.03.i = phi i64 [ %19, %.lr.ph.i ], [ %.val16, %.lr.ph.i.preheader ]
  %.072.i = phi ptr [ %23, %.lr.ph.i ], [ %.val15, %.lr.ph.i.preheader ]
  %.081.i = phi i32 [ %31, %.lr.ph.i ], [ %17, %.lr.ph.i.preheader ]
  %19 = add nsw i64 %.03.i, -1
  %20 = shl nuw nsw i32 %.081.i, 8
  %21 = and i32 %20, 65280
  %22 = lshr i32 %.081.i, 8
  %23 = getelementptr i8, ptr %.072.i, i64 1
  %24 = load i8, ptr %.072.i, align 1, !tbaa !11
  %25 = zext i8 %24 to i32
  %26 = xor i32 %22, %25
  %27 = zext nneg i32 %26 to i64
  %28 = getelementptr [256 x i16], ptr @crctab_hqx, i64 0, i64 %27
  %29 = load i16, ptr %28, align 2, !tbaa !31
  %30 = zext i16 %29 to i32
  %31 = xor i32 %21, %30
  %32 = icmp samesign ugt i64 %.03.i, 1
  br i1 %32, label %.lr.ph.i, label %.sink.split, !llvm.loop !33

33:                                               ; preds = %10
  %34 = call ptr @PyErr_Occurred() #5
  %.not12 = icmp eq ptr %34, null
  br i1 %.not12, label %.split9, label %52

.split9:                                          ; preds = %33
  %35 = getelementptr inbounds nuw i8, ptr %4, i64 16
  %.val14 = load i64, ptr %35, align 8, !tbaa !18
  %36 = icmp sgt i64 %.val14, 0
  br i1 %36, label %.lr.ph.i18.preheader, label %.sink.split

.lr.ph.i18.preheader:                             ; preds = %.split9
  %.val = load ptr, ptr %4, align 8, !tbaa !12
  br label %.lr.ph.i18

.lr.ph.i18:                                       ; preds = %.lr.ph.i18.preheader, %.lr.ph.i18
  %.03.i19 = phi i64 [ %37, %.lr.ph.i18 ], [ %.val14, %.lr.ph.i18.preheader ]
  %.072.i20 = phi ptr [ %41, %.lr.ph.i18 ], [ %.val, %.lr.ph.i18.preheader ]
  %.081.i21 = phi i32 [ %49, %.lr.ph.i18 ], [ 65535, %.lr.ph.i18.preheader ]
  %37 = add nsw i64 %.03.i19, -1
  %38 = shl nuw nsw i32 %.081.i21, 8
  %39 = and i32 %38, 65280
  %40 = lshr i32 %.081.i21, 8
  %41 = getelementptr i8, ptr %.072.i20, i64 1
  %42 = load i8, ptr %.072.i20, align 1, !tbaa !11
  %43 = zext i8 %42 to i32
  %44 = xor i32 %40, %43
  %45 = zext nneg i32 %44 to i64
  %46 = getelementptr [256 x i16], ptr @crctab_hqx, i64 0, i64 %45
  %47 = load i16, ptr %46, align 2, !tbaa !31
  %48 = zext i16 %47 to i32
  %49 = xor i32 %39, %48
  %50 = icmp samesign ugt i64 %.03.i19, 1
  br i1 %50, label %.lr.ph.i18, label %.sink.split, !llvm.loop !33

.sink.split:                                      ; preds = %.lr.ph.i, %.lr.ph.i18, %.split, %.split9
  %.sink.shrunk = phi i32 [ 65535, %.split9 ], [ %17, %.split ], [ %49, %.lr.ph.i18 ], [ %31, %.lr.ph.i ]
  %.sink = zext i32 %.sink.shrunk to i64
  %51 = call ptr @PyLong_FromUnsignedLong(i64 noundef %.sink) #5
  br label %52

52:                                               ; preds = %.sink.split, %33, %7, %5
  %.0 = phi ptr [ null, %7 ], [ null, %33 ], [ null, %5 ], [ %51, %.sink.split ]
  %53 = getelementptr inbounds nuw i8, ptr %4, i64 8
  %54 = load ptr, ptr %53, align 8, !tbaa !21
  %.not13 = icmp eq ptr %54, null
  br i1 %.not13, label %56, label %55

55:                                               ; preds = %52
  call void @PyBuffer_Release(ptr noundef nonnull %4) #5
  br label %56

56:                                               ; preds = %55, %52
  call void @llvm.lifetime.end.p0(i64 80, ptr nonnull %4) #5
  ret ptr %.0
}